; Function Attrs: mustprogress uwtable
define hidden noundef zeroext i1 @_ZN3ue211can_exhaustERKNS_8NGHolderERKNS_13ReportManagerE(ptr noundef nonnull readonly align 8 captures(none) dereferenceable(136) %0, ptr noundef nonnull align 8 dereferenceable(505) %1) local_unnamed_addr #0 personality ptr @__gxx_personality_v0 {
  %3 = alloca %"class.std::set", align 8
  call void @llvm.lifetime.start.p0(i64 48, ptr nonnull %3) #16
  call void @_ZN3ue211all_reportsERKNS_8NGHolderE(ptr dead_on_unwind nonnull writable sret(%"class.std::set") align 8 %3, ptr noundef nonnull align 8 dereferenceable(136) %0)
  %4 = getelementptr inbounds nuw i8, ptr %3, i64 24
  %5 = load ptr, ptr %4, align 8
  %6 = getelementptr inbounds nuw i8, ptr %3, i64 8
  %.not1416 = icmp eq ptr %5, %6
  br i1 %.not1416, label %._crit_edge, label %.lr.ph

.lr.ph:                                           ; preds = %2, %15
  %.sroa.011.017 = phi ptr [ %16, %15 ], [ %5, %2 ]
  %7 = getelementptr inbounds nuw i8, ptr %.sroa.011.017, i64 32
  %8 = load i32, ptr %7, align 4
  %9 = invoke noundef nonnull align 8 dereferenceable(72) ptr @_ZNK3ue213ReportManager9getReportEj(ptr noundef nonnull align 8 dereferenceable(505) %1, i32 noundef %8)
          to label %10 unwind label %13

10:                                               ; preds = %.lr.ph
  %11 = getelementptr inbounds nuw i8, ptr %9, i64 32
  %12 = load i32, ptr %11, align 8
  %.not.not.not = icmp ne i32 %12, -1
  br i1 %.not.not.not, label %15, label %._crit_edge

13:                                               ; preds = %.lr.ph
  %14 = landingpad { ptr, i32 }
          cleanup
  call void @_ZNSt3setIjSt4lessIjESaIjEED2Ev(ptr noundef nonnull align 8 dereferenceable(48) %3) #16
  call void @llvm.lifetime.end.p0(i64 48, ptr nonnull %3) #16
  resume { ptr, i32 } %14

15:                                               ; preds = %10
  %16 = call noundef ptr @_ZSt18_Rb_tree_incrementPKSt18_Rb_tree_node_base(ptr noundef nonnull %.sroa.011.017) #18
  %.not14 = icmp eq ptr %16, %6
  br i1 %.not14, label %._crit_edge, label %.lr.ph

._crit_edge:                                      ; preds = %10, %15, %2
  %.not14.lcssa = phi i1 [ true, %2 ], [ %.not.not.not, %15 ], [ %.not.not.not, %10 ]
  %17 = getelementptr inbounds nuw i8, ptr %3, i64 16
  %18 = load ptr, ptr %17, align 8
  invoke void @_ZNSt8_Rb_treeIjjSt9_IdentityIjESt4lessIjESaIjEE8_M_eraseEPSt13_Rb_tree_nodeIjE(ptr noundef nonnull align 8 dereferenceable(48) %3, ptr noundef %18)
          to label %_ZNSt3setIjSt4lessIjESaIjEED2Ev.exit unwind label %19

19:                                               ; preds = %._crit_edge
  %20 = landingpad { ptr, i32 }
          catch ptr null
  %21 = extractvalue { ptr, i32 } %20, 0
  call void @__clang_call_terminate(ptr %21) #17
  unreachable

_ZNSt3setIjSt4lessIjESaIjEED2Ev.exit:             ; preds = %._crit_edge
  call void @llvm.lifetime.end.p0(i64 48, ptr nonnull %3) #16
  ret i1 %.not14.lcssa
}